target datalayout = "e-m:e-p270:32:32-p271:32:32-p272:64:64-i64:64-i128:128-f80:128-n8:16:32:64-S128"
target triple = "x86_64-pc-linux-gnu"

%struct.EState = type { i32, i32, ptr, ptr, ptr, i32, ptr, ptr, ptr, ptr, ptr, ptr, ptr, ptr, ptr, ptr, i32, ptr, ptr, ptr, ptr, ptr, ptr, ptr, ptr, ptr, ptr, i64, i64, i32, i32, i8, ptr, ptr, ptr, ptr, ptr, i8, i32, i32, ptr, i32, ptr, ptr, ptr, ptr }
%struct.EPQState = type { ptr, i32, ptr, ptr, ptr, ptr, ptr, ptr, ptr, ptr, ptr, ptr, ptr }

@CurrentMemoryContext = external global ptr, align 8

; Function Attrs: inlinehint nounwind uwtable
define internal ptr @MemoryContextSwitchTo(ptr noundef %0) #3 {
  %2 = alloca ptr, align 8
  %3 = alloca ptr, align 8
  store ptr %0, ptr %2, align 8
  call void @llvm.lifetime.start.p0(i64 8, ptr %3) #9
  %4 = load ptr, ptr @CurrentMemoryContext, align 8
  store ptr %4, ptr %3, align 8
  %5 = load ptr, ptr %2, align 8
  store ptr %5, ptr @CurrentMemoryContext, align 8
  %6 = load ptr, ptr %3, align 8
  call void @llvm.lifetime.end.p0(i64 8, ptr %3) #9
  ret ptr %6
}

; Function Attrs: nounwind uwtable
define dso_local ptr @EvalPlanQualSlot(ptr noundef %0, ptr noundef %1, i32 noundef %2) #0 {
  %4 = alloca ptr, align 8
  %5 = alloca ptr, align 8
  %6 = alloca i32, align 4
  %7 = alloca ptr, align 8
  %8 = alloca ptr, align 8
  store ptr %0, ptr %4, align 8
  store ptr %1, ptr %5, align 8
  store i32 %2, ptr %6, align 4
  call void @llvm.lifetime.start.p0(i64 8, ptr %7) #9
  %9 = load ptr, ptr %4, align 8
  %10 = getelementptr inbounds nuw %struct.EPQState, ptr %9, i32 0, i32 4
  %11 = load ptr, ptr %10, align 8
  %12 = load i32, ptr %6, align 4
  %13 = sub i32 %12, 1
  %14 = zext i32 %13 to i64
  %15 = getelementptr inbounds nuw ptr, ptr %11, i64 %14
  store ptr %15, ptr %7, align 8
  %16 = load ptr, ptr %7, align 8
  %17 = load ptr, ptr %16, align 8
  %18 = icmp eq ptr %17, null
  br i1 %18, label %19, label %33

19:                                               ; preds = %3
  call void @llvm.lifetime.start.p0(i64 8, ptr %8) #9
  %20 = load ptr, ptr %4, align 8
  %21 = getelementptr inbounds nuw %struct.EPQState, ptr %20, i32 0, i32 0
  %22 = load ptr, ptr %21, align 8
  %23 = getelementptr inbounds nuw %struct.EState, ptr %22, i32 0, i32 25
  %24 = load ptr, ptr %23, align 8
  %25 = call ptr @MemoryContextSwitchTo(ptr noundef %24)
  store ptr %25, ptr %8, align 8
  %26 = load ptr, ptr %5, align 8
  %27 = load ptr, ptr %4, align 8
  %28 = getelementptr inbounds nuw %struct.EPQState, ptr %27, i32 0, i32 3
  %29 = call ptr @table_slot_create(ptr noundef %26, ptr noundef %28)
  %30 = load ptr, ptr %7, align 8
  store ptr %29, ptr %30, align 8
  %31 = load ptr, ptr %8, align 8
  %32 = call ptr @MemoryContextSwitchTo(ptr noundef %31)
  call void @llvm.lifetime.end.p0(i64 8, ptr %8) #9
  br label %33

33:                                               ; preds = %19, %3
  %34 = load ptr, ptr %7, align 8
  %35 = load ptr, ptr %34, align 8
  call void @llvm.lifetime.end.p0(i64 8, ptr %7) #9
  ret ptr %35
}