; Function Attrs: nounwind uwtable
define dso_local ptr @EvalPlanQualSlot(ptr noundef %0, ptr noundef %1, i32 noundef %2) local_unnamed_addr #0 {
  %4 = getelementptr inbounds nuw i8, ptr %0, i64 32
  %5 = load ptr, ptr %4, align 8
  %6 = add i32 %2, -1
  %7 = zext i32 %6 to i64
  %8 = getelementptr inbounds nuw ptr, ptr %5, i64 %7
  %9 = load ptr, ptr %8, align 8
  %10 = icmp eq ptr %9, null
  br i1 %10, label %11, label %18

11:                                               ; preds = %3
  %12 = load ptr, ptr %0, align 8
  %13 = getelementptr inbounds nuw i8, ptr %12, i64 192
  %14 = load ptr, ptr %13, align 8
  %15 = load ptr, ptr @CurrentMemoryContext, align 8
  store ptr %14, ptr @CurrentMemoryContext, align 8
  %16 = getelementptr inbounds nuw i8, ptr %0, i64 24
  %17 = tail call ptr @table_slot_create(ptr noundef %1, ptr noundef nonnull %16) #9
  store ptr %17, ptr %8, align 8
  store ptr %15, ptr @CurrentMemoryContext, align 8
  %.pre = load ptr, ptr %8, align 8
  br label %18

18:                                               ; preds = %11, %3
  %19 = phi ptr [ %.pre, %11 ], [ %9, %3 ]
  ret ptr %19
}